; Function Attrs: mustprogress uwtable
define hidden void @_ZN3opt7context13model_updatedEP5model(ptr noundef nonnull align 8 dereferenceable(792) %this, ptr noundef %md) unnamed_addr #3 align 2 personality ptr @__gxx_personality_v0 {
entry:
  %mdl = alloca %class.ref.46, align 8
  store ptr %md, ptr %mdl, align 8
  %tobool.not.i.i = icmp eq ptr %md, null
  br i1 %tobool.not.i.i, label %_ZN3refI5modelEC2EPS0_.exit, label %if.then.i.i

if.then.i.i:                                      ; preds = %entry
  %m_ref_count.i.i.i = getelementptr inbounds i8, ptr %md, i64 16
  %0 = load i32, ptr %m_ref_count.i.i.i, align 8
  %inc.i.i.i = add i32 %0, 1
  store i32 %inc.i.i.i, ptr %m_ref_count.i.i.i, align 8
  br label %_ZN3refI5modelEC2EPS0_.exit

_ZN3refI5modelEC2EPS0_.exit:                      ; preds = %entry, %if.then.i.i
  %vtable = load ptr, ptr %this, align 8
  %vfn = getelementptr inbounds i8, ptr %vtable, i64 160
  %1 = load ptr, ptr %vfn, align 8
  invoke void %1(ptr noundef nonnull align 8 dereferenceable(792) %this, ptr noundef nonnull align 8 dereferenceable(8) %mdl)
          to label %invoke.cont unwind label %lpad

invoke.cont:                                      ; preds = %_ZN3refI5modelEC2EPS0_.exit
  %2 = load ptr, ptr %mdl, align 8
  %tobool.not.i.i1 = icmp eq ptr %2, null
  br i1 %tobool.not.i.i1, label %_ZN3refI5modelED2Ev.exit, label %if.then.i.i2

if.then.i.i2:                                     ; preds = %invoke.cont
  %m_ref_count.i.i.i3 = getelementptr inbounds i8, ptr %2, i64 16
  %3 = load i32, ptr %m_ref_count.i.i.i3, align 8
  %dec.i.i.i = add i32 %3, -1
  store i32 %dec.i.i.i, ptr %m_ref_count.i.i.i3, align 8
  %cmp.i.i.i = icmp eq i32 %dec.i.i.i, 0
  br i1 %cmp.i.i.i, label %if.then.i.i.i, label %_ZN3refI5modelED2Ev.exit

if.then.i.i.i:                                    ; preds = %if.then.i.i2
  %vtable.i.i.i.i = load ptr, ptr %2, align 8
  %4 = load ptr, ptr %vtable.i.i.i.i, align 8
  call void %4(ptr noundef nonnull align 8 dereferenceable(96) %2) #24
  invoke void @_ZN6memory10deallocateEPv(ptr noundef nonnull %2)
          to label %_ZN3refI5modelED2Ev.exit unwind label %terminate.lpad.i

terminate.lpad.i:                                 ; preds = %if.then.i.i.i
  %5 = landingpad { ptr, i32 }
          catch ptr null
  %6 = extractvalue { ptr, i32 } %5, 0
  call void @__clang_call_terminate(ptr %6) #23
  unreachable

_ZN3refI5modelED2Ev.exit:                         ; preds = %invoke.cont, %if.then.i.i2, %if.then.i.i.i
  ret void

lpad:                                             ; preds = %_ZN3refI5modelEC2EPS0_.exit
  %7 = landingpad { ptr, i32 }
          cleanup
  call void @_ZN3refI5modelED2Ev(ptr noundef nonnull align 8 dereferenceable(8) %mdl) #24
  resume { ptr, i32 } %7
}